; Function Attrs: mustprogress uwtable
define void @_ZN4toku8treenode16recursive_removeEv(ptr noundef nonnull align 8 dereferenceable(202) initializes((168, 172), (184, 188)) %0) local_unnamed_addr #5 align 2 personality ptr @__gxx_personality_v0 {
  %2 = getelementptr inbounds nuw i8, ptr %0, i64 160
  %3 = load ptr, ptr %2, align 8, !tbaa !53
  %.not = icmp eq ptr %3, null
  br i1 %.not, label %5, label %4

4:                                                ; preds = %1
  tail call void @_ZN4toku8treenode16recursive_removeEv(ptr noundef nonnull align 8 dereferenceable(202) %3)
  br label %5

5:                                                ; preds = %4, %1
  store ptr null, ptr %2, align 8, !tbaa !26
  %6 = getelementptr inbounds nuw i8, ptr %0, i64 168
  store i32 0, ptr %6, align 8, !tbaa !27
  %7 = getelementptr inbounds nuw i8, ptr %0, i64 176
  %8 = load ptr, ptr %7, align 8, !tbaa !55
  %.not6 = icmp eq ptr %8, null
  br i1 %.not6, label %10, label %9

9:                                                ; preds = %5
  tail call void @_ZN4toku8treenode16recursive_removeEv(ptr noundef nonnull align 8 dereferenceable(202) %8)
  br label %10

10:                                               ; preds = %9, %5
  store ptr null, ptr %7, align 8, !tbaa !26
  %11 = getelementptr inbounds nuw i8, ptr %0, i64 184
  store i32 0, ptr %11, align 8, !tbaa !27
  %12 = getelementptr inbounds nuw i8, ptr %0, i64 48
  tail call void @_ZN4toku8keyrange7destroyEv(ptr noundef nonnull align 8 dereferenceable(81) %12)
  %13 = getelementptr inbounds nuw i8, ptr %0, i64 152
  %14 = load ptr, ptr %13, align 8, !tbaa !25
  %.not.i = icmp eq ptr %14, null
  br i1 %.not.i, label %21, label %15

15:                                               ; preds = %10
  %16 = getelementptr inbounds nuw i8, ptr %14, i64 16
  %17 = load ptr, ptr %16, align 8, !tbaa !43
  invoke void @_ZNSt8_Rb_treeImmSt9_IdentityImESt4lessImESaImEE8_M_eraseEPSt13_Rb_tree_nodeImE(ptr noundef nonnull align 8 dereferenceable(48) %14, ptr noundef %17)
          to label %_ZNSt3setImSt4lessImESaImEED2Ev.exit.i unwind label %18

18:                                               ; preds = %15
  %19 = landingpad { ptr, i32 }
          catch ptr null
  %20 = extractvalue { ptr, i32 } %19, 0
  tail call void @__clang_call_terminate(ptr %20) #20
  unreachable

_ZNSt3setImSt4lessImESaImEED2Ev.exit.i:           ; preds = %15
  tail call void @_ZdlPvm(ptr noundef nonnull %14, i64 noundef 48) #21
  store ptr null, ptr %13, align 8, !tbaa !25
  br label %21

21:                                               ; preds = %_ZNSt3setImSt4lessImESaImEED2Ev.exit.i, %10
  %22 = getelementptr inbounds nuw i8, ptr %0, i64 200
  %23 = load i8, ptr %22, align 8, !tbaa !21, !range !30, !noundef !31
  %24 = trunc nuw i8 %23 to i1
  br i1 %24, label %25, label %27

25:                                               ; preds = %21
  %26 = getelementptr inbounds nuw i8, ptr %0, i64 201
  store i8 1, ptr %26, align 1, !tbaa !22
  br label %_ZN4toku8treenode4freeEPS0_.exit

27:                                               ; preds = %21
  %28 = tail call i32 @pthread_mutex_destroy(ptr noundef nonnull %0) #17
  tail call void @_Z9toku_freePv(ptr noundef nonnull %0)
  br label %_ZN4toku8treenode4freeEPS0_.exit

_ZN4toku8treenode4freeEPS0_.exit:                 ; preds = %25, %27
  ret void
}